target datalayout = "e-m:e-p270:32:32-p271:32:32-p272:64:64-i64:64-i128:128-f80:128-n8:16:32:64-S128"
target triple = "x86_64-pc-linux-gnu"

%class.obj_mark = type { [8 x i8], %class.bit_vector }
%class.bit_vector = type { i32, i32, ptr }
%struct.default_t2uint = type { i8 }
%class.max_var_id_proc = type { i32 }
%class.ref_vector_core = type { %class.ref_manager_wrapper, %class.ptr_vector.27 }
%class.ref_manager_wrapper = type { ptr }
%class.ptr_vector.27 = type { %class.vector.28 }
%class.vector.28 = type { ptr }

; Function Attrs: mustprogress nounwind uwtable
define linkonce_odr hidden void @_ZN10bit_vectorC2Ev(ptr noundef nonnull align 8 dereferenceable(16) %0) unnamed_addr #7 comdat align 2 {
  %2 = alloca ptr, align 8
  store ptr %0, ptr %2, align 8, !tbaa !543
  %3 = load ptr, ptr %2, align 8
  %4 = getelementptr inbounds nuw %class.bit_vector, ptr %3, i32 0, i32 0
  store i32 0, ptr %4, align 8, !tbaa !588
  %5 = getelementptr inbounds nuw %class.bit_vector, ptr %3, i32 0, i32 1
  store i32 0, ptr %5, align 4, !tbaa !589
  %6 = getelementptr inbounds nuw %class.bit_vector, ptr %3, i32 0, i32 2
  store ptr null, ptr %6, align 8, !tbaa !545
  ret void
}

; Function Attrs: mustprogress nounwind uwtable
define linkonce_odr hidden noundef i32 @_ZNK6vectorIP4exprLb0EjE4sizeEv(ptr noundef nonnull align 8 dereferenceable(8) %0) #7 comdat align 2 {
  %2 = alloca i32, align 4
  %3 = alloca ptr, align 8
  store ptr %0, ptr %3, align 8, !tbaa !381
  %4 = load ptr, ptr %3, align 8
  %5 = getelementptr inbounds nuw %class.vector.28, ptr %4, i32 0, i32 0
  %6 = load ptr, ptr %5, align 8, !tbaa !383
  %7 = icmp eq ptr %6, null
  br i1 %7, label %8, label %9

8:                                                ; preds = %1
  store i32 0, ptr %2, align 4
  br label %14

9:                                                ; preds = %1
  %10 = getelementptr inbounds nuw %class.vector.28, ptr %4, i32 0, i32 0
  %11 = load ptr, ptr %10, align 8, !tbaa !383
  %12 = getelementptr inbounds i32, ptr %11, i64 -1
  %13 = load i32, ptr %12, align 4, !tbaa !17
  store i32 %13, ptr %2, align 4
  br label %14

14:                                               ; preds = %9, %8
  %15 = load i32, ptr %2, align 4
  ret i32 %15
}

; Function Attrs: mustprogress uwtable
define linkonce_odr hidden void @_ZN8obj_markI4expr10bit_vector14default_t2uintIS0_EEC2ERKS3_(ptr noundef nonnull align 8 dereferenceable(24) %0, ptr noundef nonnull align 1 dereferenceable(1) %1) unnamed_addr #4 comdat align 2 {
  %3 = alloca ptr, align 8
  %4 = alloca ptr, align 8
  store ptr %0, ptr %3, align 8, !tbaa !377
  store ptr %1, ptr %4, align 8, !tbaa !379
  %5 = load ptr, ptr %3, align 8
  %6 = getelementptr inbounds nuw %class.obj_mark, ptr %5, i32 0, i32 1
  call void @_ZN10bit_vectorC2Ev(ptr noundef nonnull align 8 dereferenceable(16) %6)
  ret void
}

; Function Attrs: mustprogress nounwind uwtable
define linkonce_odr hidden noundef i32 @_ZNK15ref_vector_coreI4expr19ref_manager_wrapperIS0_11ast_managerEE4sizeEv(ptr noundef nonnull align 8 dereferenceable(16) %0) #7 comdat align 2 {
  %2 = alloca ptr, align 8
  store ptr %0, ptr %2, align 8, !tbaa !128
  %3 = load ptr, ptr %2, align 8
  %4 = getelementptr inbounds nuw %class.ref_vector_core, ptr %3, i32 0, i32 1
  %5 = call noundef i32 @_ZNK6vectorIP4exprLb0EjE4sizeEv(ptr noundef nonnull align 8 dereferenceable(8) %4)
  ret i32 %5
}

; Function Attrs: mustprogress nounwind uwtable
define linkonce_odr hidden noundef ptr @_ZNK6vectorIP4exprLb0EjE5beginEv(ptr noundef nonnull align 8 dereferenceable(8) %0) #7 comdat align 2 {
  %2 = alloca ptr, align 8
  store ptr %0, ptr %2, align 8, !tbaa !381
  %3 = load ptr, ptr %2, align 8
  %4 = getelementptr inbounds nuw %class.vector.28, ptr %3, i32 0, i32 0
  %5 = load ptr, ptr %4, align 8, !tbaa !383
  ret ptr %5
}

; Function Attrs: mustprogress nounwind uwtable
define linkonce_odr hidden noundef i32 @_ZN15max_var_id_proc7get_maxEv(ptr noundef nonnull align 4 dereferenceable(4) %0) #7 comdat align 2 {
  %2 = alloca ptr, align 8
  store ptr %0, ptr %2, align 8, !tbaa !122
  %3 = load ptr, ptr %2, align 8
  %4 = getelementptr inbounds nuw %class.max_var_id_proc, ptr %3, i32 0, i32 0
  %5 = load i32, ptr %4, align 4, !tbaa !124
  ret i32 %5
}

; Function Attrs: mustprogress uwtable
define linkonce_odr hidden void @_Z13for_each_exprI15max_var_id_procEvRT_P4expr(ptr noundef nonnull align 4 dereferenceable(4) %0, ptr noundef %1) #4 comdat personality ptr @__gxx_personality_v0 {
  %3 = alloca ptr, align 8
  %4 = alloca ptr, align 8
  %5 = alloca %class.obj_mark, align 8
  %6 = alloca %struct.default_t2uint, align 1
  %7 = alloca ptr, align 8
  %8 = alloca i32, align 4
  store ptr %0, ptr %3, align 8, !tbaa !122
  store ptr %1, ptr %4, align 8, !tbaa !8
  call void @llvm.lifetime.start.p0(i64 24, ptr %5) #3
  call void @llvm.lifetime.start.p0(i64 1, ptr %6) #3
  call void @_ZN8obj_markI4expr10bit_vector14default_t2uintIS0_EEC2ERKS3_(ptr noundef nonnull align 8 dereferenceable(24) %5, ptr noundef nonnull align 1 dereferenceable(1) %6)
  call void @llvm.lifetime.end.p0(i64 1, ptr %6) #3
  %9 = load ptr, ptr %3, align 8, !tbaa !122
  %10 = load ptr, ptr %4, align 8, !tbaa !8
  invoke void @_Z18for_each_expr_coreI15max_var_id_proc8obj_markI4expr10bit_vector14default_t2uintIS2_EELb0ELb0EEvRT_RT0_PS2_(ptr noundef nonnull align 4 dereferenceable(4) %9, ptr noundef nonnull align 8 dereferenceable(24) %5, ptr noundef %10)
          to label %11 unwind label %12

11:                                               ; preds = %2
  call void @_ZN8obj_markI4expr10bit_vector14default_t2uintIS0_EED2Ev(ptr noundef nonnull align 8 dereferenceable(24) %5) #3
  call void @llvm.lifetime.end.p0(i64 24, ptr %5) #3
  ret void

12:                                               ; preds = %2
  %13 = landingpad { ptr, i32 }
          cleanup
  %14 = extractvalue { ptr, i32 } %13, 0
  store ptr %14, ptr %7, align 8
  %15 = extractvalue { ptr, i32 } %13, 1
  store i32 %15, ptr %8, align 4
  call void @_ZN8obj_markI4expr10bit_vector14default_t2uintIS0_EED2Ev(ptr noundef nonnull align 8 dereferenceable(24) %5) #3
  call void @llvm.lifetime.end.p0(i64 24, ptr %5) #3
  br label %16

16:                                               ; preds = %12
  %17 = load ptr, ptr %7, align 8
  %18 = load i32, ptr %8, align 4
  %19 = insertvalue { ptr, i32 } poison, ptr %17, 0
  %20 = insertvalue { ptr, i32 } %19, i32 %18, 1
  resume { ptr, i32 } %20
}

; Function Attrs: mustprogress uwtable
define linkonce_odr hidden noundef ptr @_ZNK15ref_vector_coreI4expr19ref_manager_wrapperIS0_11ast_managerEE3endEv(ptr noundef nonnull align 8 dereferenceable(16) %0) #4 comdat align 2 {
  %2 = alloca ptr, align 8
  store ptr %0, ptr %2, align 8, !tbaa !128
  %3 = load ptr, ptr %2, align 8
  %4 = call noundef ptr @_ZNK15ref_vector_coreI4expr19ref_manager_wrapperIS0_11ast_managerEE5beginEv(ptr noundef nonnull align 8 dereferenceable(16) %3)
  %5 = call noundef i32 @_ZNK15ref_vector_coreI4expr19ref_manager_wrapperIS0_11ast_managerEE4sizeEv(ptr noundef nonnull align 8 dereferenceable(16) %3)
  %6 = zext i32 %5 to i64
  %7 = getelementptr inbounds nuw ptr, ptr %4, i64 %6
  ret ptr %7
}

; Function Attrs: mustprogress uwtable
define linkonce_odr hidden noundef ptr @_ZNK15ref_vector_coreI4expr19ref_manager_wrapperIS0_11ast_managerEE5beginEv(ptr noundef nonnull align 8 dereferenceable(16) %0) #4 comdat align 2 {
  %2 = alloca ptr, align 8
  store ptr %0, ptr %2, align 8, !tbaa !128
  %3 = load ptr, ptr %2, align 8
  %4 = getelementptr inbounds nuw %class.ref_vector_core, ptr %3, i32 0, i32 1
  %5 = call noundef ptr @_ZNK6vectorIP4exprLb0EjE5beginEv(ptr noundef nonnull align 8 dereferenceable(8) %4)
  ret ptr %5
}

; Function Attrs: mustprogress nounwind uwtable
define linkonce_odr hidden void @_ZN15max_var_id_procC2Ev(ptr noundef nonnull align 4 dereferenceable(4) %0) unnamed_addr #7 comdat align 2 {
  %2 = alloca ptr, align 8
  store ptr %0, ptr %2, align 8, !tbaa !122
  %3 = load ptr, ptr %2, align 8
  %4 = getelementptr inbounds nuw %class.max_var_id_proc, ptr %3, i32 0, i32 0
  store i32 0, ptr %4, align 4, !tbaa !124
  ret void
}

; Function Attrs: mustprogress uwtable
define hidden noundef i32 @_ZN16demodulator_util10max_var_idERK10ref_vectorI4expr11ast_managerE(ptr noundef nonnull align 8 dereferenceable(8) %0, ptr noundef nonnull align 8 dereferenceable(16) %1) #4 align 2 {
  %3 = alloca ptr, align 8
  %4 = alloca ptr, align 8
  %5 = alloca %class.max_var_id_proc, align 4
  %6 = alloca ptr, align 8
  %7 = alloca ptr, align 8
  %8 = alloca ptr, align 8
  %9 = alloca ptr, align 8
  store ptr %0, ptr %3, align 8, !tbaa !3
  store ptr %1, ptr %4, align 8, !tbaa !126
  call void @llvm.lifetime.start.p0(i64 4, ptr %5) #3
  call void @_ZN15max_var_id_procC2Ev(ptr noundef nonnull align 4 dereferenceable(4) %5)
  call void @llvm.lifetime.start.p0(i64 8, ptr %6) #3
  %10 = load ptr, ptr %4, align 8, !tbaa !126
  store ptr %10, ptr %6, align 8, !tbaa !126
  call void @llvm.lifetime.start.p0(i64 8, ptr %7) #3
  %11 = load ptr, ptr %6, align 8, !tbaa !126
  %12 = call noundef ptr @_ZNK15ref_vector_coreI4expr19ref_manager_wrapperIS0_11ast_managerEE5beginEv(ptr noundef nonnull align 8 dereferenceable(16) %11)
  store ptr %12, ptr %7, align 8, !tbaa !51
  call void @llvm.lifetime.start.p0(i64 8, ptr %8) #3
  %13 = load ptr, ptr %6, align 8, !tbaa !126
  %14 = call noundef ptr @_ZNK15ref_vector_coreI4expr19ref_manager_wrapperIS0_11ast_managerEE3endEv(ptr noundef nonnull align 8 dereferenceable(16) %13)
  store ptr %14, ptr %8, align 8, !tbaa !51
  br label %15

15:                                               ; preds = %24, %2
  %16 = load ptr, ptr %7, align 8, !tbaa !51
  %17 = load ptr, ptr %8, align 8, !tbaa !51
  %18 = icmp ne ptr %16, %17
  br i1 %18, label %20, label %19

19:                                               ; preds = %15
  call void @llvm.lifetime.end.p0(i64 8, ptr %8) #3
  call void @llvm.lifetime.end.p0(i64 8, ptr %7) #3
  call void @llvm.lifetime.end.p0(i64 8, ptr %6) #3
  br label %27

20:                                               ; preds = %15
  call void @llvm.lifetime.start.p0(i64 8, ptr %9) #3
  %21 = load ptr, ptr %7, align 8, !tbaa !51
  %22 = load ptr, ptr %21, align 8, !tbaa !8
  store ptr %22, ptr %9, align 8, !tbaa !8
  %23 = load ptr, ptr %9, align 8, !tbaa !8
  call void @_Z13for_each_exprI15max_var_id_procEvRT_P4expr(ptr noundef nonnull align 4 dereferenceable(4) %5, ptr noundef %23)
  call void @llvm.lifetime.end.p0(i64 8, ptr %9) #3
  br label %24

24:                                               ; preds = %20
  %25 = load ptr, ptr %7, align 8, !tbaa !51
  %26 = getelementptr inbounds nuw ptr, ptr %25, i32 1
  store ptr %26, ptr %7, align 8, !tbaa !51
  br label %15

27:                                               ; preds = %19
  %28 = call noundef i32 @_ZN15max_var_id_proc7get_maxEv(ptr noundef nonnull align 4 dereferenceable(4) %5)
  call void @llvm.lifetime.end.p0(i64 4, ptr %5) #3
  ret i32 %28
}