; Function Attrs: mustprogress uwtable
define hidden noundef i32 @_ZN16demodulator_util10max_var_idERK10ref_vectorI4expr11ast_managerE(ptr noundef nonnull readnone align 8 captures(none) dereferenceable(8) %0, ptr noundef nonnull readonly align 8 captures(none) dereferenceable(16) %1) local_unnamed_addr #3 align 2 personality ptr @__gxx_personality_v0 {
  %3 = alloca %class.obj_mark, align 8
  %4 = alloca %class.max_var_id_proc, align 4
  call void @llvm.lifetime.start.p0(i64 4, ptr nonnull %4) #22
  store i32 0, ptr %4, align 4, !tbaa !119
  %5 = getelementptr inbounds nuw i8, ptr %1, i64 8
  %6 = load ptr, ptr %5, align 8, !tbaa !121
  %7 = icmp eq ptr %6, null
  br i1 %7, label %._crit_edge, label %_ZNK15ref_vector_coreI4expr19ref_manager_wrapperIS0_11ast_managerEE3endEv.exit

_ZNK15ref_vector_coreI4expr19ref_manager_wrapperIS0_11ast_managerEE3endEv.exit: ; preds = %2
  %8 = getelementptr inbounds i8, ptr %6, i64 -4
  %9 = load i32, ptr %8, align 4, !tbaa !17
  %10 = zext i32 %9 to i64
  %11 = getelementptr inbounds nuw ptr, ptr %6, i64 %10
  %.not8 = icmp eq i32 %9, 0
  br i1 %.not8, label %._crit_edge, label %.lr.ph

.lr.ph:                                           ; preds = %_ZNK15ref_vector_coreI4expr19ref_manager_wrapperIS0_11ast_managerEE3endEv.exit
  %12 = getelementptr inbounds nuw i8, ptr %3, i64 8
  %13 = getelementptr inbounds nuw i8, ptr %3, i64 16
  br label %15

._crit_edge.loopexit:                             ; preds = %_Z13for_each_exprI15max_var_id_procEvRT_P4expr.exit
  %.pre = load i32, ptr %4, align 4, !tbaa !119
  br label %._crit_edge

._crit_edge:                                      ; preds = %2, %._crit_edge.loopexit, %_ZNK15ref_vector_coreI4expr19ref_manager_wrapperIS0_11ast_managerEE3endEv.exit
  %14 = phi i32 [ %.pre, %._crit_edge.loopexit ], [ 0, %_ZNK15ref_vector_coreI4expr19ref_manager_wrapperIS0_11ast_managerEE3endEv.exit ], [ 0, %2 ]
  call void @llvm.lifetime.end.p0(i64 4, ptr nonnull %4) #22
  ret i32 %14

15:                                               ; preds = %.lr.ph, %_Z13for_each_exprI15max_var_id_procEvRT_P4expr.exit
  %.09 = phi ptr [ %6, %.lr.ph ], [ %26, %_Z13for_each_exprI15max_var_id_procEvRT_P4expr.exit ]
  %16 = load ptr, ptr %.09, align 8, !tbaa !49
  call void @llvm.lifetime.start.p0(i64 24, ptr nonnull %3) #22
  call void @llvm.memset.p0.i64(ptr noundef nonnull align 8 dereferenceable(16) %12, i8 0, i64 16, i1 false)
  invoke void @_Z18for_each_expr_coreI15max_var_id_proc8obj_markI4expr10bit_vector14default_t2uintIS2_EELb0ELb0EEvRT_RT0_PS2_(ptr noundef nonnull align 4 dereferenceable(4) %4, ptr noundef nonnull align 8 dereferenceable(24) %3, ptr noundef %16)
          to label %17 unwind label %24

17:                                               ; preds = %15
  %18 = load ptr, ptr %13, align 8, !tbaa !14
  %19 = icmp eq ptr %18, null
  br i1 %19, label %_Z13for_each_exprI15max_var_id_procEvRT_P4expr.exit, label %20

20:                                               ; preds = %17
  invoke void @_ZN6memory10deallocateEPv(ptr noundef nonnull %18)
          to label %_Z13for_each_exprI15max_var_id_procEvRT_P4expr.exit unwind label %21

21:                                               ; preds = %20
  %22 = landingpad { ptr, i32 }
          catch ptr null
  %23 = extractvalue { ptr, i32 } %22, 0
  call void @__clang_call_terminate(ptr %23) #23
  unreachable

24:                                               ; preds = %15
  %25 = landingpad { ptr, i32 }
          cleanup
  call void @_ZN8obj_markI4expr10bit_vector14default_t2uintIS0_EED2Ev(ptr noundef nonnull align 8 dereferenceable(24) %3) #22
  call void @llvm.lifetime.end.p0(i64 24, ptr nonnull %3) #22
  resume { ptr, i32 } %25

_Z13for_each_exprI15max_var_id_procEvRT_P4expr.exit: ; preds = %17, %20
  call void @llvm.lifetime.end.p0(i64 24, ptr nonnull %3) #22
  %26 = getelementptr inbounds nuw i8, ptr %.09, i64 8
  %.not = icmp eq ptr %26, %11
  br i1 %.not, label %._crit_edge.loopexit, label %15
}